; Function Attrs: mustprogress uwtable
define noundef i32 @uregex_groupNumberFromName_75(ptr noundef readonly %regexp2, ptr noundef %groupName, i32 noundef %nameLength, ptr noundef %status) local_unnamed_addr #5 personality ptr @__gxx_personality_v0 {
entry:
  %ref.tmp = alloca %"class.icu_75::UnicodeString", align 8
  %0 = load i32, ptr %status, align 4
  %cmp.i.i = icmp slt i32 %0, 1
  br i1 %cmp.i.i, label %if.end.i, label %return

if.end.i:                                         ; preds = %entry
  %cmp.i = icmp eq ptr %regexp2, null
  br i1 %cmp.i, label %return.sink.split.i, label %lor.lhs.false.i

lor.lhs.false.i:                                  ; preds = %if.end.i
  %1 = load i32, ptr %regexp2, align 8
  %cmp1.not.i = icmp eq i32 %1, 1919252592
  br i1 %cmp1.not.i, label %if.end, label %return.sink.split.i

return.sink.split.i:                              ; preds = %lor.lhs.false.i, %if.end.i
  store i32 1, ptr %status, align 4
  br label %return

if.end:                                           ; preds = %lor.lhs.false.i
  %fPat = getelementptr inbounds i8, ptr %regexp2, i64 8
  %2 = load ptr, ptr %fPat, align 8
  call void @_ZN6icu_7513UnicodeStringC1EPKDsi(ptr noundef nonnull align 8 dereferenceable(64) %ref.tmp, ptr noundef %groupName, i32 noundef %nameLength)
  %call1 = invoke noundef i32 @_ZNK6icu_7512RegexPattern19groupNumberFromNameERKNS_13UnicodeStringER10UErrorCode(ptr noundef nonnull align 8 dereferenceable(200) %2, ptr noundef nonnull align 8 dereferenceable(64) %ref.tmp, ptr noundef nonnull align 4 dereferenceable(4) %status)
          to label %invoke.cont unwind label %lpad

invoke.cont:                                      ; preds = %if.end
  call void @_ZN6icu_7513UnicodeStringD1Ev(ptr noundef nonnull align 8 dereferenceable(64) %ref.tmp) #10
  br label %return

lpad:                                             ; preds = %if.end
  %3 = landingpad { ptr, i32 }
          cleanup
  call void @_ZN6icu_7513UnicodeStringD1Ev(ptr noundef nonnull align 8 dereferenceable(64) %ref.tmp) #10
  resume { ptr, i32 } %3

return:                                           ; preds = %return.sink.split.i, %entry, %invoke.cont
  %retval.0 = phi i32 [ %call1, %invoke.cont ], [ 0, %entry ], [ 0, %return.sink.split.i ]
  ret i32 %retval.0
}